target datalayout = "e-m:e-p270:32:32-p271:32:32-p272:64:64-i64:64-i128:128-f80:128-n8:16:32:64-S128"
target triple = "x86_64-pc-linux-gnu"

%struct.SDL_VideoDevice = type { ptr, ptr, ptr, ptr, ptr, ptr, ptr, ptr, ptr, ptr, ptr, ptr, ptr, ptr, ptr, ptr, ptr, ptr, ptr, ptr, ptr, ptr, ptr, ptr, ptr, ptr, ptr, ptr, ptr, ptr, ptr, ptr, ptr, ptr, ptr, ptr, ptr, ptr, ptr, ptr, ptr, ptr, ptr, ptr, ptr, ptr, ptr, ptr, ptr, ptr, ptr, ptr, ptr, ptr, ptr, ptr, ptr, ptr, ptr, ptr, ptr, ptr, ptr, ptr, ptr, ptr, ptr, ptr, ptr, ptr, ptr, ptr, ptr, ptr, ptr, ptr, ptr, ptr, ptr, ptr, ptr, ptr, ptr, ptr, ptr, ptr, ptr, ptr, ptr, ptr, ptr, ptr, ptr, ptr, ptr, ptr, ptr, i64, i8, i8, i8, ptr, i32, ptr, %struct.SDL_Rect, ptr, ptr, i32, ptr, ptr, ptr, ptr, i64, ptr, i8, i32, i32, %struct.anon, ptr, ptr, ptr, ptr, ptr, ptr, %struct.SDL_AtomicInt, %struct.SDL_AtomicInt, i8, %struct.anon.0, ptr, ptr, ptr, ptr, ptr }
%struct.SDL_Rect = type { i32, i32, i32, i32 }
%struct.anon = type { i32, i32, i32, i32, i32, i32, i32, i32, i32, i32, i32, i32, i32, i32, i32, i32, i32, i32, i32, i32, i32, i32, i32, i32, i32, i32, i32, i32, i32, [256 x i8], ptr }
%struct.SDL_AtomicInt = type { i32 }
%struct.anon.0 = type { ptr, ptr, i32, [256 x i8], ptr }
%struct.SDL_VideoData = type { ptr, ptr, i32, ptr, i64, i32, ptr, i32, i64, i64, %struct.X11_ClipboardData, %struct.X11_ClipboardData, ptr, i64, %struct.X11_SettingsData, i8, %struct.anon.1, [256 x i32], i8, i8, i8, i64, i8, %struct.SDL_Point, i32, ptr, i32, i8, i32, %struct.anon.2, i8, i64, ptr, ptr, i8, i8, i8 }
%struct.X11_ClipboardData = type { ptr, ptr, ptr, i64, i32 }
%struct.X11_SettingsData = type { ptr }
%struct.anon.1 = type { i64, i64, i64, i64, i64, i64, i64, i64, i64, i64, i64, i64, i64, i64, i64, i64, i64, i64, i64, i64, i64, i64, i64, i64, i64, i64, i64, i64, i64, i64, i64, i64, i64, i64, i64, i64, i64, i64, i64, i64, i64, i64, i64, i64, i64, i64, i64, i64, i64, i64, i64, i64, i64 }
%struct.SDL_Point = type { i32, i32 }
%struct.anon.2 = type { ptr, i32, i32, i32, i16, i32, i32 }
%struct.anon.4 = type { ptr, ptr, i32, i32, i32, i32, ptr, i64, i64, i64, i32, ptr, i32, i32, i32, i32, i32, ptr, i32, i32, ptr, ptr, i32, i64, i64, ptr, ptr, ptr, ptr, i32, ptr, ptr, ptr, i32, i32, ptr, i64, i64, i32, i32, ptr, ptr, i32, ptr }
%struct.Screen = type { ptr, ptr, i64, i32, i32, i32, i32, i32, ptr, i32, ptr, ptr, i64, i64, i64, i32, i32, i32, i32, i64 }

@.str.13 = private unnamed_addr constant [21 x i8] c"Vulkan is not loaded\00", align 1
@.str.15 = private unnamed_addr constant [68 x i8] c"VK_KHR_xcb_surface extension is not enabled in the Vulkan instance.\00", align 1
@.str.19 = private unnamed_addr constant [69 x i8] c"VK_KHR_xlib_surface extension is not enabled in the Vulkan instance.\00", align 1
@.str.21 = private unnamed_addr constant [30 x i8] c"SDL_VIDEO_X11_WINDOW_VISUALID\00", align 1
@X11_XVisualIDFromVisual = external global ptr, align 8
@.str.22 = private unnamed_addr constant [45 x i8] c"vkGetPhysicalDeviceXcbPresentationSupportKHR\00", align 1
@.str.23 = private unnamed_addr constant [46 x i8] c"vkGetPhysicalDeviceXlibPresentationSupportKHR\00", align 1

; Function Attrs: nounwind uwtable
define hidden zeroext i1 @X11_Vulkan_GetPresentationSupport(ptr noundef %0, ptr noundef %1, ptr noundef %2, i32 noundef %3) #0 {
  %5 = alloca i1, align 1
  %6 = alloca ptr, align 8
  %7 = alloca ptr, align 8
  %8 = alloca ptr, align 8
  %9 = alloca i32, align 4
  %10 = alloca ptr, align 8
  %11 = alloca ptr, align 8
  %12 = alloca ptr, align 8
  %13 = alloca i64, align 8
  %14 = alloca i32, align 4
  %15 = alloca ptr, align 8
  %16 = alloca ptr, align 8
  store ptr %0, ptr %6, align 8
  store ptr %1, ptr %7, align 8
  store ptr %2, ptr %8, align 8
  store i32 %3, ptr %9, align 4
  call void @llvm.lifetime.start.p0(i64 8, ptr %10) #4
  %17 = load ptr, ptr %6, align 8
  %18 = getelementptr inbounds nuw %struct.SDL_VideoDevice, ptr %17, i32 0, i32 128
  %19 = load ptr, ptr %18, align 8
  store ptr %19, ptr %10, align 8
  call void @llvm.lifetime.start.p0(i64 8, ptr %11) #4
  call void @llvm.lifetime.start.p0(i64 8, ptr %12) #4
  call void @llvm.lifetime.start.p0(i64 8, ptr %13) #4
  %20 = load ptr, ptr %6, align 8
  %21 = getelementptr inbounds nuw %struct.SDL_VideoDevice, ptr %20, i32 0, i32 127
  %22 = getelementptr inbounds nuw %struct.anon.0, ptr %21, i32 0, i32 4
  %23 = load ptr, ptr %22, align 8
  %24 = icmp ne ptr %23, null
  br i1 %24, label %27, label %25

25:                                               ; preds = %4
  %26 = call zeroext i1 (ptr, ...) @SDL_SetError_REAL(ptr noundef @.str.13)
  store i1 %26, ptr %5, align 1
  store i32 1, ptr %14, align 4
  br label %103

27:                                               ; preds = %4
  %28 = load ptr, ptr %6, align 8
  %29 = getelementptr inbounds nuw %struct.SDL_VideoDevice, ptr %28, i32 0, i32 127
  %30 = getelementptr inbounds nuw %struct.anon.0, ptr %29, i32 0, i32 0
  %31 = load ptr, ptr %30, align 8
  store ptr %31, ptr %11, align 8
  %32 = call ptr @SDL_GetHint_REAL(ptr noundef @.str.21)
  store ptr %32, ptr %12, align 8
  %33 = load ptr, ptr %12, align 8
  %34 = icmp ne ptr %33, null
  br i1 %34, label %35, label %38

35:                                               ; preds = %27
  %36 = load ptr, ptr %12, align 8
  %37 = call i64 @SDL_strtol_REAL(ptr noundef %36, ptr noundef null, i32 noundef 0)
  store i64 %37, ptr %13, align 8
  br label %55

38:                                               ; preds = %27
  %39 = load ptr, ptr @X11_XVisualIDFromVisual, align 8
  %40 = load ptr, ptr %10, align 8
  %41 = getelementptr inbounds nuw %struct.SDL_VideoData, ptr %40, i32 0, i32 0
  %42 = load ptr, ptr %41, align 8
  %43 = getelementptr inbounds nuw %struct.anon.4, ptr %42, i32 0, i32 35
  %44 = load ptr, ptr %43, align 8
  %45 = load ptr, ptr %10, align 8
  %46 = getelementptr inbounds nuw %struct.SDL_VideoData, ptr %45, i32 0, i32 0
  %47 = load ptr, ptr %46, align 8
  %48 = getelementptr inbounds nuw %struct.anon.4, ptr %47, i32 0, i32 33
  %49 = load i32, ptr %48, align 8
  %50 = sext i32 %49 to i64
  %51 = getelementptr inbounds %struct.Screen, ptr %44, i64 %50
  %52 = getelementptr inbounds nuw %struct.Screen, ptr %51, i32 0, i32 10
  %53 = load ptr, ptr %52, align 8
  %54 = call i64 %39(ptr noundef %53)
  store i64 %54, ptr %13, align 8
  br label %55

55:                                               ; preds = %38, %35
  %56 = load ptr, ptr %10, align 8
  %57 = getelementptr inbounds nuw %struct.SDL_VideoData, ptr %56, i32 0, i32 32
  %58 = load ptr, ptr %57, align 8
  %59 = icmp ne ptr %58, null
  br i1 %59, label %60, label %84

60:                                               ; preds = %55
  call void @llvm.lifetime.start.p0(i64 8, ptr %15) #4
  %61 = load ptr, ptr %11, align 8
  %62 = load ptr, ptr %7, align 8
  %63 = call ptr %61(ptr noundef %62, ptr noundef @.str.22)
  store ptr %63, ptr %15, align 8
  %64 = load ptr, ptr %15, align 8
  %65 = icmp ne ptr %64, null
  br i1 %65, label %68, label %66

66:                                               ; preds = %60
  %67 = call zeroext i1 (ptr, ...) @SDL_SetError_REAL(ptr noundef @.str.15)
  store i1 %67, ptr %5, align 1
  store i32 1, ptr %14, align 4
  br label %83

68:                                               ; preds = %60
  %69 = load ptr, ptr %15, align 8
  %70 = load ptr, ptr %8, align 8
  %71 = load i32, ptr %9, align 4
  %72 = load ptr, ptr %10, align 8
  %73 = getelementptr inbounds nuw %struct.SDL_VideoData, ptr %72, i32 0, i32 33
  %74 = load ptr, ptr %73, align 8
  %75 = load ptr, ptr %10, align 8
  %76 = getelementptr inbounds nuw %struct.SDL_VideoData, ptr %75, i32 0, i32 0
  %77 = load ptr, ptr %76, align 8
  %78 = call ptr %74(ptr noundef %77)
  %79 = load i64, ptr %13, align 8
  %80 = trunc i64 %79 to i32
  %81 = call i32 %69(ptr noundef %70, i32 noundef %71, ptr noundef %78, i32 noundef %80)
  %82 = icmp ne i32 %81, 0
  store i1 %82, ptr %5, align 1
  store i32 1, ptr %14, align 4
  br label %83

83:                                               ; preds = %68, %66
  call void @llvm.lifetime.end.p0(i64 8, ptr %15) #4
  br label %103

84:                                               ; preds = %55
  call void @llvm.lifetime.start.p0(i64 8, ptr %16) #4
  %85 = load ptr, ptr %11, align 8
  %86 = load ptr, ptr %7, align 8
  %87 = call ptr %85(ptr noundef %86, ptr noundef @.str.23)
  store ptr %87, ptr %16, align 8
  %88 = load ptr, ptr %16, align 8
  %89 = icmp ne ptr %88, null
  br i1 %89, label %92, label %90

90:                                               ; preds = %84
  %91 = call zeroext i1 (ptr, ...) @SDL_SetError_REAL(ptr noundef @.str.19)
  store i1 %91, ptr %5, align 1
  store i32 1, ptr %14, align 4
  br label %102

92:                                               ; preds = %84
  %93 = load ptr, ptr %16, align 8
  %94 = load ptr, ptr %8, align 8
  %95 = load i32, ptr %9, align 4
  %96 = load ptr, ptr %10, align 8
  %97 = getelementptr inbounds nuw %struct.SDL_VideoData, ptr %96, i32 0, i32 0
  %98 = load ptr, ptr %97, align 8
  %99 = load i64, ptr %13, align 8
  %100 = call i32 %93(ptr noundef %94, i32 noundef %95, ptr noundef %98, i64 noundef %99)
  %101 = icmp ne i32 %100, 0
  store i1 %101, ptr %5, align 1
  store i32 1, ptr %14, align 4
  br label %102

102:                                              ; preds = %92, %90
  call void @llvm.lifetime.end.p0(i64 8, ptr %16) #4
  br label %103

103:                                              ; preds = %102, %83, %25
  call void @llvm.lifetime.end.p0(i64 8, ptr %13) #4
  call void @llvm.lifetime.end.p0(i64 8, ptr %12) #4
  call void @llvm.lifetime.end.p0(i64 8, ptr %11) #4
  call void @llvm.lifetime.end.p0(i64 8, ptr %10) #4
  %104 = load i1, ptr %5, align 1
  ret i1 %104
}